; Function Attrs: mustprogress nounwind uwtable
define void @_ZN9QuickOpen5CloseEv(ptr nocapture noundef nonnull readonly align 8 dereferenceable(2673) %0) local_unnamed_addr #2 align 2 {
  %2 = getelementptr inbounds i8, ptr %0, i64 16
  %3 = load ptr, ptr %2, align 8
  %.not7 = icmp eq ptr %3, null
  br i1 %.not7, label %._crit_edge, label %.lr.ph

.lr.ph:                                           ; preds = %1, %9
  %.08 = phi ptr [ %5, %9 ], [ %3, %1 ]
  %4 = getelementptr inbounds i8, ptr %.08, i64 24
  %5 = load ptr, ptr %4, align 8
  %6 = load ptr, ptr %.08, align 8
  %7 = icmp eq ptr %6, null
  br i1 %7, label %9, label %8

8:                                                ; preds = %.lr.ph
  tail call void @_ZdaPv(ptr noundef nonnull %6) #16
  br label %9

9:                                                ; preds = %.lr.ph, %8
  tail call void @_ZdlPv(ptr noundef nonnull %.08) #16
  %.not = icmp eq ptr %5, null
  br i1 %.not, label %._crit_edge, label %.lr.ph, !llvm.loop !4

._crit_edge:                                      ; preds = %9, %1
  ret void
}